; Function Attrs: mustprogress nounwind uwtable
define hidden noundef nonnull ptr @_ZN20xaddI_imm_no_resNode6ExpandEP5StateR9Node_ListP4Node(ptr noundef nonnull returned align 8 dereferenceable(88) %0, ptr nocapture noundef readnone %1, ptr noundef nonnull align 8 dereferenceable(28) %2, ptr nocapture noundef readnone %3) unnamed_addr #0 align 2 {
  %5 = tail call align 8 ptr @llvm.threadlocal.address.p0(ptr align 8 @_ZN6Thread12_thr_currentE)
  %6 = load ptr, ptr %5, align 8
  %7 = getelementptr inbounds i8, ptr %6, i64 1808
  %8 = load ptr, ptr %7, align 8
  %9 = getelementptr inbounds i8, ptr %8, i64 128
  %10 = load ptr, ptr %9, align 8
  %11 = getelementptr inbounds i8, ptr %10, i64 728
  %12 = load ptr, ptr %11, align 8
  %13 = getelementptr inbounds i8, ptr %12, i64 40
  %14 = load ptr, ptr %13, align 8
  %15 = getelementptr inbounds i8, ptr %12, i64 32
  %16 = load ptr, ptr %15, align 8
  %17 = ptrtoint ptr %14 to i64
  %18 = ptrtoint ptr %16 to i64
  %19 = sub i64 %17, %18
  %.not.i.i.i = icmp ult i64 %19, 168
  br i1 %.not.i.i.i, label %22, label %20

20:                                               ; preds = %4
  %21 = getelementptr inbounds i8, ptr %16, i64 168
  store ptr %21, ptr %15, align 8
  br label %_ZN4NodenwEm.exit

22:                                               ; preds = %4
  %23 = tail call noundef ptr @_ZN5Arena4growEmN17AllocFailStrategy13AllocFailEnumE(ptr noundef nonnull align 8 dereferenceable(48) %12, i64 noundef 168, i32 noundef 0) #7
  br label %_ZN4NodenwEm.exit

_ZN4NodenwEm.exit:                                ; preds = %20, %22
  %.0.i.i.i = phi ptr [ %16, %20 ], [ %23, %22 ]
  %24 = icmp eq ptr %.0.i.i.i, null
  br i1 %24, label %34, label %25

25:                                               ; preds = %_ZN4NodenwEm.exit
  tail call void @_ZN4NodeC2EPS_(ptr noundef nonnull align 8 dereferenceable(52) %.0.i.i.i, ptr noundef nonnull %0) #7
  %26 = getelementptr inbounds i8, ptr %.0.i.i.i, i64 52
  store i32 1, ptr %26, align 4
  %27 = getelementptr inbounds i8, ptr %.0.i.i.i, i64 56
  store i8 0, ptr %27, align 8
  %28 = getelementptr inbounds i8, ptr %.0.i.i.i, i64 44
  store i32 8, ptr %28, align 4
  %29 = getelementptr inbounds i8, ptr %.0.i.i.i, i64 48
  %30 = load i32, ptr %29, align 8
  %31 = or i32 %30, 64
  store i32 %31, ptr %29, align 8
  store ptr getelementptr inbounds inrange(-16, 192) (i8, ptr @_ZTV12MachProjNode, i64 16), ptr %.0.i.i.i, align 8
  %32 = getelementptr inbounds i8, ptr %.0.i.i.i, i64 64
  tail call void @llvm.memcpy.p0.p0.i64(ptr noundef nonnull align 8 dereferenceable(96) %32, ptr noundef nonnull align 8 dereferenceable(96) @_INT_FLAGS_mask, i64 96, i1 false)
  %33 = getelementptr inbounds i8, ptr %.0.i.i.i, i64 160
  store i32 15, ptr %33, align 8
  store i32 520, ptr %28, align 4
  br label %34

34:                                               ; preds = %25, %_ZN4NodenwEm.exit
  %35 = getelementptr inbounds i8, ptr %2, i64 24
  %36 = load i32, ptr %35, align 8
  %37 = add i32 %36, 1
  store i32 %37, ptr %35, align 8
  %38 = getelementptr inbounds i8, ptr %2, i64 8
  %39 = load i32, ptr %38, align 8
  %.not.i.i = icmp ugt i32 %39, %36
  br i1 %.not.i.i, label %_ZN9Node_List4pushEP4Node.exit, label %40

40:                                               ; preds = %34
  tail call void @_ZN10Node_Array4growEj(ptr noundef nonnull align 8 dereferenceable(24) %2, i32 noundef %36) #7
  br label %_ZN9Node_List4pushEP4Node.exit

_ZN9Node_List4pushEP4Node.exit:                   ; preds = %34, %40
  %41 = getelementptr inbounds i8, ptr %2, i64 16
  %42 = load ptr, ptr %41, align 8
  %43 = zext i32 %36 to i64
  %44 = getelementptr inbounds ptr, ptr %42, i64 %43
  store ptr %.0.i.i.i, ptr %44, align 8
  ret ptr %0
}